target datalayout = "e-m:e-p270:32:32-p271:32:32-p272:64:64-i64:64-i128:128-f80:128-n8:16:32:64-S128"
target triple = "x86_64-pc-linux-gnu"

%struct.redisServer = type { i32, i64, ptr, ptr, ptr, i32, i32, i32, i32, i32, ptr, ptr, ptr, ptr, ptr, i32, i32, i32, i32, i64, i32, i32, i32, i32, ptr, i32, i32, [41 x i8], i32, i64, i32, i32, i32, ptr, ptr, i32, i32, i64, ptr, ptr, ptr, ptr, [2 x i32], i32, i32, i32, i32, i32, i32, [16 x ptr], i32, ptr, ptr, i32, [8 x %struct.connListener], i32, %struct.connListener, ptr, ptr, ptr, ptr, ptr, ptr, ptr, ptr, ptr, ptr, i32, ptr, i32, ptr, [3 x %struct.pause_event], [256 x i8], ptr, i64, i32, i32, [128 x i32], i32, i32, i64, i32, i32, i32, i32, i32, i64, i64, i64, i64, i64, i64, i64, i64, i64, i64, double, i64, i64, i64, i64, i64, i64, i64, i64, i64, i64, i64, i64, i64, i64, i64, i64, i64, i64, i64, i64, i64, double, i64, i64, i64, i64, i64, ptr, i64, i64, i64, %struct.malloc_stats, i64, i64, i64, i64, i64, i64, i64, i64, i64, i64, i64, i64, double, [4 x i64], i64, i64, i64, i64, [128 x i64], [128 x i64], i64, i64, [7 x %struct.anon], i64, i64, i64, i64, i64, i64, [4 x %struct.durationStats], i32, i32, i32, i32, i32, i32, i32, i32, i32, i32, i32, i32, i64, i32, i32, i32, i32, i64, i64, i32, i32, i32, i32, i32, ptr, [3 x %struct.clientBufferLimitsConfig], i32, i32, i32, ptr, i32, i32, i32, i32, i32, i32, ptr, ptr, i32, i32, i64, i64, i64, i64, i64, i32, i32, ptr, i32, i32, i64, i64, i64, i64, i64, i32, i32, i64, i32, i32, i32, i32, i32, i32, i32, i32, ptr, i32, i64, i64, i64, i64, i32, ptr, i32, ptr, i32, i32, i32, i64, i64, i64, i64, i32, i32, i32, i32, i32, i32, ptr, i32, i32, ptr, i32, i32, i32, [2 x i32], i32, %struct.redisOpArray, i32, ptr, i32, ptr, i32, i32, i32, i32, i32, i32, i32, [41 x i8], [41 x i8], i64, i64, i64, i64, i32, i32, ptr, i64, i64, %struct.replDataBuf, i64, i64, i32, i32, i32, i32, i32, i32, i32, i32, i32, i64, ptr, i64, ptr, ptr, ptr, i32, i32, ptr, ptr, i32, i32, i32, i64, i64, i64, i64, ptr, ptr, i32, ptr, i64, i32, i32, i32, i64, i32, i32, i32, i32, ptr, i32, i32, [41 x i8], i64, i32, ptr, i32, i32, i64, i64, i32, i32, i32, i32, i32, i64, [3 x i32], i32, i32, i32, [10 x i32], ptr, ptr, i32, i64, ptr, ptr, i32, i32, i32, i32, i64, i64, i64, i64, i64, i64, i64, i64, i64, i64, i32, i32, i64, i64, i32, i64, i64, i64, i64, i64, ptr, ptr, i32, ptr, i32, i32, i32, i32, i64, i64, ptr, ptr, i32, i32, i32, i32, i32, ptr, ptr, ptr, i32, i32, i32, i32, i32, i32, i32, i64, i32, i32, i64, i32, i32, i32, i32, i32, i32, i32, i64, ptr, ptr, i64, ptr, i32, %struct.aclInfo, i32, i64, i32, i32, i32, %struct.redisTLSContextConfig, ptr, ptr, ptr, ptr, ptr, i64, i32, ptr, i32, i32, i32, i64, i32, ptr }
%struct.connListener = type { [16 x i32], i32, ptr, i32, i32, ptr, ptr }
%struct.pause_event = type { i32, i64 }
%struct.malloc_stats = type { i64, i64, i64, i64, i64, i64, i64, i64, i64, i64, i64 }
%struct.anon = type { i64, i64, [16 x i64], i32 }
%struct.durationStats = type { i64, i64, i64 }
%struct.clientBufferLimitsConfig = type { i64, i64, i64 }
%struct.redisOpArray = type { ptr, i32, i32 }
%struct.replDataBuf = type { ptr, i64, i64, i64, i64 }
%struct.aclInfo = type { i64, i64, i64, i64 }
%struct.redisTLSContextConfig = type { ptr, ptr, ptr, ptr, ptr, ptr, ptr, ptr, ptr, ptr, ptr, ptr, i32, i32, i32, i32 }
%struct.aofInfo = type { ptr, i64, i32, i64, i64 }
%struct.aofManifest = type { ptr, ptr, ptr, i64, i64, i32 }

@.str = private unnamed_addr constant [11 x i8] c"ai != NULL\00", align 1
@.str.1 = private unnamed_addr constant [6 x i8] c"aof.c\00", align 1
@server = external global %struct.redisServer, align 8
@.str.48 = private unnamed_addr constant [35 x i8] c"!aofFileExist(server.aof_filename)\00", align 1
@.str.49 = private unnamed_addr constant [44 x i8] c"Can't open or create append-only dir %s: %s\00", align 1
@.str.50 = private unnamed_addr constant [57 x i8] c"Error trying to move the old AOF file %s into dir %s: %s\00", align 1
@.str.51 = private unnamed_addr constant [78 x i8] c"Successfully migrated an old-style AOF file (%s) into the AOF directory (%s).\00", align 1

; Function Attrs: nounwind uwtable
define dso_local i32 @persistAofManifest(ptr noundef %0) #0 {
  %2 = alloca i32, align 4
  %3 = alloca ptr, align 8
  %4 = alloca ptr, align 8
  %5 = alloca i32, align 4
  store ptr %0, ptr %3, align 8, !tbaa !5
  %6 = load ptr, ptr %3, align 8, !tbaa !5
  %7 = getelementptr inbounds nuw %struct.aofManifest, ptr %6, i32 0, i32 5
  %8 = load i32, ptr %7, align 8, !tbaa !75
  %9 = icmp eq i32 %8, 0
  br i1 %9, label %10, label %11

10:                                               ; preds = %1
  store i32 0, ptr %2, align 4
  br label %24

11:                                               ; preds = %1
  call void @llvm.lifetime.start.p0(i64 8, ptr %4) #12
  %12 = load ptr, ptr %3, align 8, !tbaa !5
  %13 = call ptr @getAofManifestAsString(ptr noundef %12)
  store ptr %13, ptr %4, align 8, !tbaa !18
  call void @llvm.lifetime.start.p0(i64 4, ptr %5) #12
  %14 = load ptr, ptr %4, align 8, !tbaa !18
  %15 = call i32 @writeAofManifestFile(ptr noundef %14)
  store i32 %15, ptr %5, align 4, !tbaa !22
  %16 = load ptr, ptr %4, align 8, !tbaa !18
  call void @sdsfree(ptr noundef %16)
  %17 = load i32, ptr %5, align 4, !tbaa !22
  %18 = icmp eq i32 %17, 0
  br i1 %18, label %19, label %22

19:                                               ; preds = %11
  %20 = load ptr, ptr %3, align 8, !tbaa !5
  %21 = getelementptr inbounds nuw %struct.aofManifest, ptr %20, i32 0, i32 5
  store i32 0, ptr %21, align 8, !tbaa !75
  br label %22

22:                                               ; preds = %19, %11
  %23 = load i32, ptr %5, align 4, !tbaa !22
  store i32 %23, ptr %2, align 4
  call void @llvm.lifetime.end.p0(i64 4, ptr %5) #12
  call void @llvm.lifetime.end.p0(i64 8, ptr %4) #12
  br label %24

24:                                               ; preds = %22, %10
  %25 = load i32, ptr %2, align 4
  ret i32 %25
}

; Function Attrs: nounwind uwtable
define dso_local ptr @aofInfoCreate() #0 {
  %1 = alloca ptr, align 8
  call void @llvm.lifetime.start.p0(i64 8, ptr %1) #12
  %2 = call noalias ptr @zcalloc(i64 noundef 40) #13
  store ptr %2, ptr %1, align 8, !tbaa !5
  %3 = load ptr, ptr %1, align 8, !tbaa !5
  %4 = getelementptr inbounds nuw %struct.aofInfo, ptr %3, i32 0, i32 3
  store i64 -1, ptr %4, align 8, !tbaa !9
  %5 = load ptr, ptr %1, align 8, !tbaa !5
  %6 = getelementptr inbounds nuw %struct.aofInfo, ptr %5, i32 0, i32 4
  store i64 -1, ptr %6, align 8, !tbaa !14
  %7 = load ptr, ptr %1, align 8, !tbaa !5
  call void @llvm.lifetime.end.p0(i64 8, ptr %1) #12
  ret ptr %7
}

; Function Attrs: nounwind uwtable
define dso_local void @aofInfoFree(ptr noundef %0) #0 {
  %2 = alloca ptr, align 8
  store ptr %0, ptr %2, align 8, !tbaa !5
  %3 = load ptr, ptr %2, align 8, !tbaa !5
  %4 = icmp ne ptr %3, null
  %5 = xor i1 %4, true
  %6 = xor i1 %5, true
  %7 = zext i1 %6 to i32
  %8 = sext i32 %7 to i64
  %9 = call i64 @llvm.expect.i64(i64 %8, i64 1)
  %10 = icmp ne i64 %9, 0
  br i1 %10, label %11, label %12

11:                                               ; preds = %1
  br label %14

12:                                               ; preds = %1
  call void @_serverAssert(ptr noundef @.str, ptr noundef @.str.1, i32 noundef 96)
  call void @abort() #14
  unreachable

13:                                               ; No predecessors!
  br label %14

14:                                               ; preds = %13, %11
  %15 = load ptr, ptr %2, align 8, !tbaa !5
  %16 = getelementptr inbounds nuw %struct.aofInfo, ptr %15, i32 0, i32 0
  %17 = load ptr, ptr %16, align 8, !tbaa !15
  %18 = icmp ne ptr %17, null
  br i1 %18, label %19, label %23

19:                                               ; preds = %14
  %20 = load ptr, ptr %2, align 8, !tbaa !5
  %21 = getelementptr inbounds nuw %struct.aofInfo, ptr %20, i32 0, i32 0
  %22 = load ptr, ptr %21, align 8, !tbaa !15
  call void @sdsfree(ptr noundef %22)
  br label %23

23:                                               ; preds = %19, %14
  %24 = load ptr, ptr %2, align 8, !tbaa !5
  call void @zfree(ptr noundef %24)
  ret void
}

; Function Attrs: nounwind uwtable
define dso_local i32 @aofFileExist(ptr noundef %0) #0 {
  %2 = alloca ptr, align 8
  %3 = alloca ptr, align 8
  %4 = alloca i32, align 4
  store ptr %0, ptr %2, align 8, !tbaa !18
  call void @llvm.lifetime.start.p0(i64 8, ptr %3) #12
  %5 = load ptr, ptr getelementptr inbounds nuw (%struct.redisServer, ptr @server, i32 0, i32 196), align 8, !tbaa !66
  %6 = load ptr, ptr %2, align 8, !tbaa !18
  %7 = call ptr @makePath(ptr noundef %5, ptr noundef %6)
  store ptr %7, ptr %3, align 8, !tbaa !18
  call void @llvm.lifetime.start.p0(i64 4, ptr %4) #12
  %8 = load ptr, ptr %3, align 8, !tbaa !18
  %9 = call i32 @fileExist(ptr noundef %8)
  store i32 %9, ptr %4, align 4, !tbaa !22
  %10 = load ptr, ptr %3, align 8, !tbaa !18
  call void @sdsfree(ptr noundef %10)
  %11 = load i32, ptr %4, align 4, !tbaa !22
  call void @llvm.lifetime.end.p0(i64 4, ptr %4) #12
  call void @llvm.lifetime.end.p0(i64 8, ptr %3) #12
  ret i32 %11
}

; Function Attrs: nounwind uwtable
define dso_local void @aofUpgradePrepare(ptr noundef %0) #0 {
  %2 = alloca ptr, align 8
  %3 = alloca ptr, align 8
  %4 = alloca ptr, align 8
  store ptr %0, ptr %2, align 8, !tbaa !5
  %5 = load ptr, ptr getelementptr inbounds nuw (%struct.redisServer, ptr @server, i32 0, i32 195), align 8, !tbaa !34
  %6 = call i32 @aofFileExist(ptr noundef %5)
  %7 = icmp ne i32 %6, 0
  %8 = xor i1 %7, true
  %9 = xor i1 %8, true
  %10 = xor i1 %9, true
  %11 = zext i1 %10 to i32
  %12 = sext i32 %11 to i64
  %13 = call i64 @llvm.expect.i64(i64 %12, i64 1)
  %14 = icmp ne i64 %13, 0
  br i1 %14, label %15, label %16

15:                                               ; preds = %1
  br label %18

16:                                               ; preds = %1
  call void @_serverAssert(ptr noundef @.str.48, ptr noundef @.str.1, i32 noundef 630)
  call void @abort() #14
  unreachable

17:                                               ; No predecessors!
  br label %18

18:                                               ; preds = %17, %15
  %19 = load ptr, ptr getelementptr inbounds nuw (%struct.redisServer, ptr @server, i32 0, i32 196), align 8, !tbaa !66
  %20 = call i32 @dirCreateIfMissing(ptr noundef %19)
  %21 = icmp eq i32 %20, -1
  br i1 %21, label %22, label %33

22:                                               ; preds = %18
  br label %23

23:                                               ; preds = %22
  %24 = load i32, ptr getelementptr inbounds nuw (%struct.redisServer, ptr @server, i32 0, i32 159), align 8, !tbaa !67
  %25 = icmp slt i32 3, %24
  br i1 %25, label %26, label %27

26:                                               ; preds = %23
  br label %32

27:                                               ; preds = %23
  %28 = load ptr, ptr getelementptr inbounds nuw (%struct.redisServer, ptr @server, i32 0, i32 196), align 8, !tbaa !66
  %29 = call ptr @__errno_location() #15
  %30 = load i32, ptr %29, align 4, !tbaa !22
  %31 = call ptr @strerror(i32 noundef %30) #12
  call void (i32, ptr, ...) @_serverLog(i32 noundef 3, ptr noundef @.str.49, ptr noundef %28, ptr noundef %31)
  br label %32

32:                                               ; preds = %27, %26
  call void @exit(i32 noundef 1) #14
  unreachable

33:                                               ; preds = %18
  %34 = load ptr, ptr %2, align 8, !tbaa !5
  %35 = getelementptr inbounds nuw %struct.aofManifest, ptr %34, i32 0, i32 0
  %36 = load ptr, ptr %35, align 8, !tbaa !33
  %37 = icmp ne ptr %36, null
  br i1 %37, label %38, label %42

38:                                               ; preds = %33
  %39 = load ptr, ptr %2, align 8, !tbaa !5
  %40 = getelementptr inbounds nuw %struct.aofManifest, ptr %39, i32 0, i32 0
  %41 = load ptr, ptr %40, align 8, !tbaa !33
  call void @aofInfoFree(ptr noundef %41)
  br label %42

42:                                               ; preds = %38, %33
  call void @llvm.lifetime.start.p0(i64 8, ptr %3) #12
  %43 = call ptr @aofInfoCreate()
  store ptr %43, ptr %3, align 8, !tbaa !5
  %44 = load ptr, ptr getelementptr inbounds nuw (%struct.redisServer, ptr @server, i32 0, i32 195), align 8, !tbaa !34
  %45 = call ptr @sdsnew(ptr noundef %44)
  %46 = load ptr, ptr %3, align 8, !tbaa !5
  %47 = getelementptr inbounds nuw %struct.aofInfo, ptr %46, i32 0, i32 0
  store ptr %45, ptr %47, align 8, !tbaa !15
  %48 = load ptr, ptr %3, align 8, !tbaa !5
  %49 = getelementptr inbounds nuw %struct.aofInfo, ptr %48, i32 0, i32 1
  store i64 1, ptr %49, align 8, !tbaa !16
  %50 = load ptr, ptr %3, align 8, !tbaa !5
  %51 = getelementptr inbounds nuw %struct.aofInfo, ptr %50, i32 0, i32 2
  store i32 98, ptr %51, align 8, !tbaa !17
  %52 = load ptr, ptr %3, align 8, !tbaa !5
  %53 = load ptr, ptr %2, align 8, !tbaa !5
  %54 = getelementptr inbounds nuw %struct.aofManifest, ptr %53, i32 0, i32 0
  store ptr %52, ptr %54, align 8, !tbaa !33
  %55 = load ptr, ptr %2, align 8, !tbaa !5
  %56 = getelementptr inbounds nuw %struct.aofManifest, ptr %55, i32 0, i32 3
  store i64 1, ptr %56, align 8, !tbaa !73
  %57 = load ptr, ptr %2, align 8, !tbaa !5
  %58 = getelementptr inbounds nuw %struct.aofManifest, ptr %57, i32 0, i32 5
  store i32 1, ptr %58, align 8, !tbaa !75
  %59 = load ptr, ptr %2, align 8, !tbaa !5
  %60 = call i32 @persistAofManifest(ptr noundef %59)
  %61 = icmp ne i32 %60, 0
  br i1 %61, label %62, label %63

62:                                               ; preds = %42
  call void @exit(i32 noundef 1) #14
  unreachable

63:                                               ; preds = %42
  call void @llvm.lifetime.start.p0(i64 8, ptr %4) #12
  %64 = load ptr, ptr getelementptr inbounds nuw (%struct.redisServer, ptr @server, i32 0, i32 196), align 8, !tbaa !66
  %65 = load ptr, ptr getelementptr inbounds nuw (%struct.redisServer, ptr @server, i32 0, i32 195), align 8, !tbaa !34
  %66 = call ptr @makePath(ptr noundef %64, ptr noundef %65)
  store ptr %66, ptr %4, align 8, !tbaa !18
  %67 = load ptr, ptr getelementptr inbounds nuw (%struct.redisServer, ptr @server, i32 0, i32 195), align 8, !tbaa !34
  %68 = load ptr, ptr %4, align 8, !tbaa !18
  %69 = call i32 @rename(ptr noundef %67, ptr noundef %68) #12
  %70 = icmp eq i32 %69, -1
  br i1 %70, label %71, label %85

71:                                               ; preds = %63
  br label %72

72:                                               ; preds = %71
  %73 = load i32, ptr getelementptr inbounds nuw (%struct.redisServer, ptr @server, i32 0, i32 159), align 8, !tbaa !67
  %74 = icmp slt i32 3, %73
  br i1 %74, label %75, label %76

75:                                               ; preds = %72
  br label %83

76:                                               ; preds = %72
  %77 = load ptr, ptr getelementptr inbounds nuw (%struct.redisServer, ptr @server, i32 0, i32 195), align 8, !tbaa !34
  %78 = load ptr, ptr getelementptr inbounds nuw (%struct.redisServer, ptr @server, i32 0, i32 196), align 8, !tbaa !66
  %79 = call ptr @__errno_location() #15
  %80 = load i32, ptr %79, align 4, !tbaa !22
  %81 = call ptr @strerror(i32 noundef %80) #12
  call void (i32, ptr, ...) @_serverLog(i32 noundef 3, ptr noundef @.str.50, ptr noundef %77, ptr noundef %78, ptr noundef %81)
  br label %82

82:                                               ; preds = %76
  br label %83

83:                                               ; preds = %82, %75
  %84 = load ptr, ptr %4, align 8, !tbaa !18
  call void @sdsfree(ptr noundef %84)
  call void @exit(i32 noundef 1) #14
  unreachable

85:                                               ; preds = %63
  %86 = load ptr, ptr %4, align 8, !tbaa !18
  call void @sdsfree(ptr noundef %86)
  br label %87

87:                                               ; preds = %85
  %88 = load i32, ptr getelementptr inbounds nuw (%struct.redisServer, ptr @server, i32 0, i32 159), align 8, !tbaa !67
  %89 = icmp slt i32 2, %88
  br i1 %89, label %90, label %91

90:                                               ; preds = %87
  br label %95

91:                                               ; preds = %87
  %92 = load ptr, ptr getelementptr inbounds nuw (%struct.redisServer, ptr @server, i32 0, i32 195), align 8, !tbaa !34
  %93 = load ptr, ptr getelementptr inbounds nuw (%struct.redisServer, ptr @server, i32 0, i32 196), align 8, !tbaa !66
  call void (i32, ptr, ...) @_serverLog(i32 noundef 2, ptr noundef @.str.51, ptr noundef %92, ptr noundef %93)
  br label %94

94:                                               ; preds = %91
  br label %95

95:                                               ; preds = %94, %90
  call void @llvm.lifetime.end.p0(i64 8, ptr %4) #12
  call void @llvm.lifetime.end.p0(i64 8, ptr %3) #12
  ret void
}