; Function Attrs: nounwind uwtable
define dso_local void @aofUpgradePrepare(ptr noundef captures(address_is_null) %0) local_unnamed_addr #0 {
  %2 = load ptr, ptr getelementptr inbounds nuw (i8, ptr @server, i64 6528), align 8, !tbaa !33
  %3 = load ptr, ptr getelementptr inbounds nuw (i8, ptr @server, i64 6536), align 8, !tbaa !64
  %4 = tail call ptr @makePath(ptr noundef %3, ptr noundef %2) #20
  %5 = tail call i32 @fileExist(ptr noundef %4) #20
  tail call void @sdsfree(ptr noundef %4) #20
  %.not = icmp eq i32 %5, 0
  br i1 %.not, label %7, label %6, !prof !71

6:                                                ; preds = %1
  tail call void @_serverAssert(ptr noundef nonnull @.str.48, ptr noundef nonnull @.str.1, i32 noundef 630) #20
  tail call void @abort() #21
  unreachable

7:                                                ; preds = %1
  %8 = load ptr, ptr getelementptr inbounds nuw (i8, ptr @server, i64 6536), align 8, !tbaa !64
  %9 = tail call i32 @dirCreateIfMissing(ptr noundef %8) #20
  %10 = icmp eq i32 %9, -1
  br i1 %10, label %11, label %20

11:                                               ; preds = %7
  %12 = load i32, ptr getelementptr inbounds nuw (i8, ptr @server, i64 6288), align 8, !tbaa !65
  %13 = icmp sgt i32 %12, 3
  br i1 %13, label %19, label %14

14:                                               ; preds = %11
  %15 = load ptr, ptr getelementptr inbounds nuw (i8, ptr @server, i64 6536), align 8, !tbaa !64
  %16 = tail call ptr @__errno_location() #22
  %17 = load i32, ptr %16, align 4, !tbaa !21
  %18 = tail call ptr @strerror(i32 noundef %17) #20
  tail call void (i32, ptr, ...) @_serverLog(i32 noundef 3, ptr noundef nonnull @.str.49, ptr noundef %15, ptr noundef %18) #20
  br label %19

19:                                               ; preds = %11, %14
  tail call void @exit(i32 noundef 1) #23
  unreachable

20:                                               ; preds = %7
  %21 = load ptr, ptr %0, align 8, !tbaa !32
  %.not13 = icmp eq ptr %21, null
  br i1 %.not13, label %25, label %22

22:                                               ; preds = %20
  %23 = load ptr, ptr %21, align 8, !tbaa !6
  %.not5.i = icmp eq ptr %23, null
  br i1 %.not5.i, label %aofInfoFree.exit, label %24

24:                                               ; preds = %22
  tail call void @sdsfree(ptr noundef nonnull %23) #20
  br label %aofInfoFree.exit

aofInfoFree.exit:                                 ; preds = %22, %24
  tail call void @zfree(ptr noundef nonnull %21) #20
  br label %25

25:                                               ; preds = %20, %aofInfoFree.exit
  %26 = tail call noalias noundef dereferenceable_or_null(40) ptr @zcalloc(i64 noundef 40) #19
  %27 = getelementptr inbounds nuw i8, ptr %26, i64 24
  tail call void @llvm.memset.p0.i64(ptr noundef nonnull align 8 dereferenceable(16) %27, i8 -1, i64 16, i1 false)
  %28 = load ptr, ptr getelementptr inbounds nuw (i8, ptr @server, i64 6528), align 8, !tbaa !33
  %29 = tail call ptr @sdsnew(ptr noundef %28) #20
  store ptr %29, ptr %26, align 8, !tbaa !6
  %30 = getelementptr inbounds nuw i8, ptr %26, i64 8
  store i64 1, ptr %30, align 8, !tbaa !14
  %31 = getelementptr inbounds nuw i8, ptr %26, i64 16
  store i32 98, ptr %31, align 8, !tbaa !15
  store ptr %26, ptr %0, align 8, !tbaa !32
  %32 = getelementptr inbounds nuw i8, ptr %0, i64 24
  store i64 1, ptr %32, align 8, !tbaa !68
  %33 = getelementptr inbounds nuw i8, ptr %0, i64 40
  store i32 1, ptr %33, align 8, !tbaa !70
  %34 = tail call ptr @getAofManifestAsString(ptr noundef nonnull %0)
  %35 = tail call i32 @writeAofManifestFile(ptr noundef %34)
  tail call void @sdsfree(ptr noundef %34) #20
  %36 = icmp eq i32 %35, 0
  br i1 %36, label %37, label %persistAofManifest.exit

persistAofManifest.exit:                          ; preds = %25
  tail call void @exit(i32 noundef 1) #23
  unreachable

37:                                               ; preds = %25
  store i32 0, ptr %33, align 8, !tbaa !70
  %38 = load ptr, ptr getelementptr inbounds nuw (i8, ptr @server, i64 6536), align 8, !tbaa !64
  %39 = load ptr, ptr getelementptr inbounds nuw (i8, ptr @server, i64 6528), align 8, !tbaa !33
  %40 = tail call ptr @makePath(ptr noundef %38, ptr noundef %39) #20
  %41 = load ptr, ptr getelementptr inbounds nuw (i8, ptr @server, i64 6528), align 8, !tbaa !33
  %42 = tail call i32 @rename(ptr noundef %41, ptr noundef %40) #20
  %43 = icmp eq i32 %42, -1
  br i1 %43, label %44, label %54

44:                                               ; preds = %37
  %45 = load i32, ptr getelementptr inbounds nuw (i8, ptr @server, i64 6288), align 8, !tbaa !65
  %46 = icmp sgt i32 %45, 3
  br i1 %46, label %53, label %47

47:                                               ; preds = %44
  %48 = load ptr, ptr getelementptr inbounds nuw (i8, ptr @server, i64 6528), align 8, !tbaa !33
  %49 = load ptr, ptr getelementptr inbounds nuw (i8, ptr @server, i64 6536), align 8, !tbaa !64
  %50 = tail call ptr @__errno_location() #22
  %51 = load i32, ptr %50, align 4, !tbaa !21
  %52 = tail call ptr @strerror(i32 noundef %51) #20
  tail call void (i32, ptr, ...) @_serverLog(i32 noundef 3, ptr noundef nonnull @.str.50, ptr noundef %48, ptr noundef %49, ptr noundef %52) #20
  br label %53

53:                                               ; preds = %44, %47
  tail call void @sdsfree(ptr noundef %40) #20
  tail call void @exit(i32 noundef 1) #23
  unreachable

54:                                               ; preds = %37
  tail call void @sdsfree(ptr noundef %40) #20
  %55 = load i32, ptr getelementptr inbounds nuw (i8, ptr @server, i64 6288), align 8, !tbaa !65
  %56 = icmp sgt i32 %55, 2
  br i1 %56, label %60, label %57

57:                                               ; preds = %54
  %58 = load ptr, ptr getelementptr inbounds nuw (i8, ptr @server, i64 6528), align 8, !tbaa !33
  %59 = load ptr, ptr getelementptr inbounds nuw (i8, ptr @server, i64 6536), align 8, !tbaa !64
  tail call void (i32, ptr, ...) @_serverLog(i32 noundef 2, ptr noundef nonnull @.str.51, ptr noundef %58, ptr noundef %59) #20
  br label %60

60:                                               ; preds = %54, %57
  ret void
}